target datalayout = "e-m:e-p270:32:32-p271:32:32-p272:64:64-i64:64-i128:128-f80:128-n8:16:32:64-S128"
target triple = "x86_64-pc-linux-gnu"

%struct.H5C_cache_image_ctl_t = type { i32, i8, i8, i32, i32 }
%struct.H5C_t = type { i8, ptr, ptr, i32, ptr, i64, i64, ptr, i8, ptr, i8, i8, i32, i64, [6 x i32], [6 x i64], i64, [6 x i64], i64, [6 x i64], [65536 x ptr], i32, i64, ptr, ptr, i64, ptr, ptr, i8, i8, i32, i64, [6 x i32], [6 x i64], ptr, i32, ptr, i8, i32, i32, i64, ptr, ptr, i32, i64, ptr, ptr, i32, i64, ptr, ptr, i8, i8, i64, i8, i8, i8, i8, i8, i8, %struct.H5C_auto_size_ctl_t, i32, [10 x i8], [11 x i32], i32, i32, i32, [10 x %struct.H5C_cache_entry_t], i64, i64, %struct.H5C_cache_image_ctl_t, i8, i8, i8, i8, i64, i64, i64, i64, i64, i64, i64, i32, ptr, ptr, i8, i8, [32 x i8] }
%struct.H5C_auto_size_ctl_t = type { i32, ptr, i8, i64, double, i64, i64, i64, i32, double, double, i8, i64, i32, double, double, i32, double, double, i8, i64, i32, i8, double }
%struct.H5C_cache_entry_t = type { ptr, i64, i64, ptr, i8, ptr, i8, i8, i8, i8, i32, i8, i8, i8, i8, i8, i32, ptr, i32, i32, i32, i32, i32, i8, i8, ptr, ptr, ptr, ptr, ptr, ptr, i8, i32, i8, i64, ptr, i64, i64, i32, i8, i32, i32, i8, ptr, ptr, ptr }
%struct.H5C_log_info_t = type { i8, i8, ptr, ptr }

@H5AC_init_g = global i8 0, align 1
@H5_libterm_g = external global i8, align 1
@.str = private unnamed_addr constant [98 x i8] c"generated/home/dtcxzyw/WorkSpace/Projects/compilers/llvm-opt-benchmark/bench/hdf5/hdf5/src/H5AC.c\00", align 1
@H5E_FUNC_g = external global i64, align 8
@H5E_CANTINIT_g = external global i64, align 8
@.str.1 = private unnamed_addr constant [32 x i8] c"interface initialization failed\00", align 1
@H5E_CACHE_g = external global i64, align 8
@H5E_LOGGING_g = external global i64, align 8
@.str.7 = private unnamed_addr constant [27 x i8] c"unable to emit log message\00", align 1
@__func__.H5AC_pin_protected_entry = private unnamed_addr constant [25 x i8] c"H5AC_pin_protected_entry\00", align 1
@H5E_CANTPIN_g = external global i64, align 8
@.str.24 = private unnamed_addr constant [16 x i8] c"can't pin entry\00", align 1

; Function Attrs: nounwind uwtable
define i32 @H5AC__init_package() #0 {
  %1 = load i8, ptr @H5AC_init_g, align 1, !tbaa !7, !range !9, !noundef !10
  %2 = trunc i8 %1 to i1
  br i1 %2, label %7, label %3

3:                                                ; preds = %0
  %4 = load i8, ptr @H5_libterm_g, align 1, !tbaa !7, !range !9, !noundef !10
  %5 = trunc i8 %4 to i1
  %6 = xor i1 %5, true
  br label %7

7:                                                ; preds = %3, %0
  %8 = phi i1 [ true, %0 ], [ %6, %3 ]
  %9 = xor i1 %8, true
  %10 = xor i1 %9, true
  %11 = zext i1 %10 to i32
  %12 = sext i32 %11 to i64
  %13 = call i64 @llvm.expect.i64(i64 %12, i64 1)
  %14 = icmp ne i64 %13, 0
  br i1 %14, label %15, label %16

15:                                               ; preds = %7
  br label %16

16:                                               ; preds = %15, %7
  ret i32 0
}

; Function Attrs: nounwind uwtable
define i32 @H5AC_pin_protected_entry(ptr noundef %0) #0 {
  %2 = alloca ptr, align 8
  %3 = alloca ptr, align 8
  %4 = alloca ptr, align 8
  %5 = alloca i32, align 4
  %6 = alloca i8, align 1
  store ptr %0, ptr %2, align 8, !tbaa !84
  call void @llvm.lifetime.start.p0(i64 8, ptr %3) #6
  store ptr null, ptr %3, align 8, !tbaa !89
  call void @llvm.lifetime.start.p0(i64 8, ptr %4) #6
  store ptr null, ptr %4, align 8, !tbaa !42
  call void @llvm.lifetime.start.p0(i64 4, ptr %5) #6
  store i32 0, ptr %5, align 4, !tbaa !3
  call void @llvm.lifetime.start.p0(i64 1, ptr %6) #6
  store i8 0, ptr %6, align 1, !tbaa !7
  %7 = load i8, ptr @H5AC_init_g, align 1, !tbaa !7, !range !9, !noundef !10
  %8 = trunc i8 %7 to i1
  br i1 %8, label %13, label %9

9:                                                ; preds = %1
  %10 = load i8, ptr @H5_libterm_g, align 1, !tbaa !7, !range !9, !noundef !10
  %11 = trunc i8 %10 to i1
  %12 = xor i1 %11, true
  br label %13

13:                                               ; preds = %9, %1
  %14 = phi i1 [ false, %1 ], [ %12, %9 ]
  %15 = xor i1 %14, true
  %16 = xor i1 %15, true
  %17 = zext i1 %16 to i32
  %18 = sext i32 %17 to i64
  %19 = call i64 @llvm.expect.i64(i64 %18, i64 0)
  %20 = icmp ne i64 %19, 0
  br i1 %20, label %21, label %44

21:                                               ; preds = %13
  store i8 1, ptr @H5AC_init_g, align 1, !tbaa !7
  %22 = call i32 @H5AC__init_package()
  %23 = icmp slt i32 %22, 0
  br i1 %23, label %24, label %43

24:                                               ; preds = %21
  store i8 0, ptr @H5AC_init_g, align 1, !tbaa !7
  br label %25

25:                                               ; preds = %24
  br label %26

26:                                               ; preds = %25
  br label %27

27:                                               ; preds = %26
  %28 = load i64, ptr @H5E_FUNC_g, align 8, !tbaa !11
  %29 = load i64, ptr @H5E_CANTINIT_g, align 8, !tbaa !11
  %30 = call i32 (ptr, ptr, i32, i64, i64, ptr, ...) @H5E_printf_stack(ptr noundef @.str, ptr noundef @__func__.H5AC_pin_protected_entry, i32 noundef 1067, i64 noundef %28, i64 noundef %29, ptr noundef @.str.1)
  br label %31

31:                                               ; preds = %27
  br label %32

32:                                               ; preds = %31
  store i8 1, ptr %6, align 1, !tbaa !7
  %33 = load i8, ptr %6, align 1, !tbaa !7, !range !9, !noundef !10
  %34 = trunc i8 %33 to i1
  %35 = zext i1 %34 to i8
  store i8 %35, ptr %6, align 1, !tbaa !7
  br label %36

36:                                               ; preds = %32
  br label %37

37:                                               ; preds = %36
  br label %38

38:                                               ; preds = %37
  store i32 -1, ptr %5, align 4, !tbaa !3
  br label %87

39:                                               ; No predecessors!
  br label %40

40:                                               ; preds = %39
  br label %41

41:                                               ; preds = %40
  br label %42

42:                                               ; preds = %41
  br label %43

43:                                               ; preds = %42, %21
  br label %44

44:                                               ; preds = %43, %13
  %45 = load i8, ptr @H5AC_init_g, align 1, !tbaa !7, !range !9, !noundef !10
  %46 = trunc i8 %45 to i1
  br i1 %46, label %51, label %47

47:                                               ; preds = %44
  %48 = load i8, ptr @H5_libterm_g, align 1, !tbaa !7, !range !9, !noundef !10
  %49 = trunc i8 %48 to i1
  %50 = xor i1 %49, true
  br label %51

51:                                               ; preds = %47, %44
  %52 = phi i1 [ true, %44 ], [ %50, %47 ]
  %53 = xor i1 %52, true
  %54 = xor i1 %53, true
  %55 = zext i1 %54 to i32
  %56 = sext i32 %55 to i64
  %57 = call i64 @llvm.expect.i64(i64 %56, i64 1)
  %58 = icmp ne i64 %57, 0
  br i1 %58, label %59, label %127

59:                                               ; preds = %51
  %60 = load ptr, ptr %2, align 8, !tbaa !84
  store ptr %60, ptr %3, align 8, !tbaa !89
  %61 = load ptr, ptr %3, align 8, !tbaa !89
  %62 = getelementptr inbounds nuw %struct.H5C_cache_entry_t, ptr %61, i32 0, i32 0
  %63 = load ptr, ptr %62, align 8, !tbaa !90
  store ptr %63, ptr %4, align 8, !tbaa !42
  %64 = load ptr, ptr %2, align 8, !tbaa !84
  %65 = call i32 @H5C_pin_protected_entry(ptr noundef %64)
  %66 = icmp slt i32 %65, 0
  br i1 %66, label %67, label %86

67:                                               ; preds = %59
  br label %68

68:                                               ; preds = %67
  br label %69

69:                                               ; preds = %68
  br label %70

70:                                               ; preds = %69
  %71 = load i64, ptr @H5E_CACHE_g, align 8, !tbaa !11
  %72 = load i64, ptr @H5E_CANTPIN_g, align 8, !tbaa !11
  %73 = call i32 (ptr, ptr, i32, i64, i64, ptr, ...) @H5E_printf_stack(ptr noundef @.str, ptr noundef @__func__.H5AC_pin_protected_entry, i32 noundef 1078, i64 noundef %71, i64 noundef %72, ptr noundef @.str.24)
  br label %74

74:                                               ; preds = %70
  br label %75

75:                                               ; preds = %74
  store i8 1, ptr %6, align 1, !tbaa !7
  %76 = load i8, ptr %6, align 1, !tbaa !7, !range !9, !noundef !10
  %77 = trunc i8 %76 to i1
  %78 = zext i1 %77 to i8
  store i8 %78, ptr %6, align 1, !tbaa !7
  br label %79

79:                                               ; preds = %75
  br label %80

80:                                               ; preds = %79
  br label %81

81:                                               ; preds = %80
  store i32 -1, ptr %5, align 4, !tbaa !3
  br label %87

82:                                               ; No predecessors!
  br label %83

83:                                               ; preds = %82
  br label %84

84:                                               ; preds = %83
  br label %85

85:                                               ; preds = %84
  br label %86

86:                                               ; preds = %85, %59
  br label %87

87:                                               ; preds = %86, %81, %38
  %88 = load ptr, ptr %4, align 8, !tbaa !42
  %89 = icmp ne ptr %88, null
  br i1 %89, label %90, label %126

90:                                               ; preds = %87
  %91 = load ptr, ptr %4, align 8, !tbaa !42
  %92 = getelementptr inbounds nuw %struct.H5C_t, ptr %91, i32 0, i32 1
  %93 = load ptr, ptr %92, align 8, !tbaa !56
  %94 = icmp ne ptr %93, null
  br i1 %94, label %95, label %126

95:                                               ; preds = %90
  %96 = load ptr, ptr %4, align 8, !tbaa !42
  %97 = getelementptr inbounds nuw %struct.H5C_t, ptr %96, i32 0, i32 1
  %98 = load ptr, ptr %97, align 8, !tbaa !56
  %99 = getelementptr inbounds nuw %struct.H5C_log_info_t, ptr %98, i32 0, i32 1
  %100 = load i8, ptr %99, align 1, !tbaa !64, !range !9, !noundef !10
  %101 = trunc i8 %100 to i1
  br i1 %101, label %102, label %125

102:                                              ; preds = %95
  %103 = load ptr, ptr %4, align 8, !tbaa !42
  %104 = load ptr, ptr %3, align 8, !tbaa !89
  %105 = load i32, ptr %5, align 4, !tbaa !3
  %106 = call i32 @H5C_log_write_pin_entry_msg(ptr noundef %103, ptr noundef %104, i32 noundef %105)
  %107 = icmp slt i32 %106, 0
  br i1 %107, label %108, label %124

108:                                              ; preds = %102
  br label %109

109:                                              ; preds = %108
  br label %110

110:                                              ; preds = %109
  br label %111

111:                                              ; preds = %110
  %112 = load i64, ptr @H5E_CACHE_g, align 8, !tbaa !11
  %113 = load i64, ptr @H5E_LOGGING_g, align 8, !tbaa !11
  %114 = call i32 (ptr, ptr, i32, i64, i64, ptr, ...) @H5E_printf_stack(ptr noundef @.str, ptr noundef @__func__.H5AC_pin_protected_entry, i32 noundef 1085, i64 noundef %112, i64 noundef %113, ptr noundef @.str.7)
  br label %115

115:                                              ; preds = %111
  br label %116

116:                                              ; preds = %115
  store i8 1, ptr %6, align 1, !tbaa !7
  %117 = load i8, ptr %6, align 1, !tbaa !7, !range !9, !noundef !10
  %118 = trunc i8 %117 to i1
  %119 = zext i1 %118 to i8
  store i8 %119, ptr %6, align 1, !tbaa !7
  br label %120

120:                                              ; preds = %116
  br label %121

121:                                              ; preds = %120
  store i32 -1, ptr %5, align 4, !tbaa !3
  br label %122

122:                                              ; preds = %121
  br label %123

123:                                              ; preds = %122
  br label %124

124:                                              ; preds = %123, %102
  br label %125

125:                                              ; preds = %124, %95
  br label %126

126:                                              ; preds = %125, %90, %87
  br label %127

127:                                              ; preds = %126, %51
  %128 = load i32, ptr %5, align 4, !tbaa !3
  call void @llvm.lifetime.end.p0(i64 1, ptr %6) #6
  call void @llvm.lifetime.end.p0(i64 4, ptr %5) #6
  call void @llvm.lifetime.end.p0(i64 8, ptr %4) #6
  call void @llvm.lifetime.end.p0(i64 8, ptr %3) #6
  ret i32 %128
}